; ModuleID = '45/553.c'
source_filename = "45/553.c"
target datalayout = "e-m:e-p270:32:32-p271:32:32-p272:64:64-i64:64-f80:128-n8:16:32:64-S128"
target triple = "x86_64-pc-linux-gnu"

@.str = private unnamed_addr constant [5 x i8] c"%s%s\00", align 1
@.str.1 = private unnamed_addr constant [4 x i8] c"%d\0A\00", align 1

; Function Attrs: noinline nounwind uwtable
define dso_local void @main() #0 {
  %1 = alloca i32, align 4
  %2 = alloca i32, align 4
  %3 = alloca i32, align 4
  %4 = alloca [50 x i8], align 16
  %5 = alloca [50 x i8], align 16
  %6 = alloca i8*, align 8
  %7 = alloca i8*, align 8
  %8 = alloca i8*, align 8
  %9 = getelementptr inbounds [50 x i8], [50 x i8]* %4, i64 0, i64 0
  %10 = getelementptr inbounds [50 x i8], [50 x i8]* %5, i64 0, i64 0
  %11 = call i32 (i8*, ...) @__isoc99_scanf(i8* getelementptr inbounds ([5 x i8], [5 x i8]* @.str, i64 0, i64 0), i8* %9, i8* %10)
  %12 = getelementptr inbounds [50 x i8], [50 x i8]* %5, i64 0, i64 0
  store i8* %12, i8** %6, align 8
  store i32 0, i32* %1, align 4
  br label %13

13:                                               ; preds = %63, %0
  %14 = load i32, i32* %1, align 4
  %15 = sext i32 %14 to i64
  %16 = getelementptr inbounds [50 x i8], [50 x i8]* %5, i64 0, i64 0
  %17 = call i64 @strlen(i8* %16) #3
  %18 = icmp ult i64 %15, %17
  br i1 %18, label %19, label %68

19:                                               ; preds = %13
  %20 = getelementptr inbounds [50 x i8], [50 x i8]* %4, i64 0, i64 0
  store i8* %20, i8** %7, align 8
  %21 = load i8*, i8** %7, align 8
  %22 = load i8, i8* %21, align 1
  %23 = sext i8 %22 to i32
  %24 = load i8*, i8** %6, align 8
  %25 = load i8, i8* %24, align 1
  %26 = sext i8 %25 to i32
  %27 = icmp eq i32 %23, %26
  br i1 %27, label %28, label %55

28:                                               ; preds = %19
  %29 = load i8*, i8** %6, align 8
  store i8* %29, i8** %8, align 8
  store i32 0, i32* %2, align 4
  br label %30

30:                                               ; preds = %47, %28
  %31 = load i32, i32* %2, align 4
  %32 = sext i32 %31 to i64
  %33 = getelementptr inbounds [50 x i8], [50 x i8]* %4, i64 0, i64 0
  %34 = call i64 @strlen(i8* %33) #3
  %35 = icmp ult i64 %32, %34
  br i1 %35, label %36, label %54

36:                                               ; preds = %30
  %37 = load i8*, i8** %7, align 8
  %38 = load i8, i8* %37, align 1
  %39 = sext i8 %38 to i32
  %40 = load i8*, i8** %6, align 8
  %41 = load i8, i8* %40, align 1
  %42 = sext i8 %41 to i32
  %43 = icmp eq i32 %39, %42
  br i1 %43, label %44, label %45

44:                                               ; preds = %36
  store i32 1, i32* %3, align 4
  br label %47

45:                                               ; preds = %36
  %46 = load i8*, i8** %8, align 8
  store i8* %46, i8** %6, align 8
  store i32 0, i32* %3, align 4
  br label %54

47:                                               ; preds = %44
  %48 = load i32, i32* %2, align 4
  %49 = add nsw i32 %48, 1
  store i32 %49, i32* %2, align 4
  %50 = load i8*, i8** %7, align 8
  %51 = getelementptr inbounds i8, i8* %50, i64 1
  store i8* %51, i8** %7, align 8
  %52 = load i8*, i8** %6, align 8
  %53 = getelementptr inbounds i8, i8* %52, i64 1
  store i8* %53, i8** %6, align 8
  br label %30

54:                                               ; preds = %45, %30
  br label %56

55:                                               ; preds = %19
  store i32 0, i32* %3, align 4
  br label %56

56:                                               ; preds = %55, %54
  %57 = load i32, i32* %3, align 4
  %58 = icmp eq i32 %57, 1
  br i1 %58, label %59, label %62

59:                                               ; preds = %56
  %60 = load i32, i32* %1, align 4
  %61 = call i32 (i8*, ...) @printf(i8* getelementptr inbounds ([4 x i8], [4 x i8]* @.str.1, i64 0, i64 0), i32 %60)
  br label %68

62:                                               ; preds = %56
  br label %63

63:                                               ; preds = %62
  %64 = load i32, i32* %1, align 4
  %65 = add nsw i32 %64, 1
  store i32 %65, i32* %1, align 4
  %66 = load i8*, i8** %6, align 8
  %67 = getelementptr inbounds i8, i8* %66, i64 1
  store i8* %67, i8** %6, align 8
  br label %13

68:                                               ; preds = %59, %13
  ret void
}

declare dso_local i32 @__isoc99_scanf(i8*, ...) #1

; Function Attrs: nounwind readonly
declare dso_local i64 @strlen(i8*) #2

declare dso_local i32 @printf(i8*, ...) #1


!llvm.module.flags = !{!0}
!llvm.ident = !{!1}

!0 = !{i32 1, !"wchar_size", i32 4}
!1 = !{!"clang version 10.0.0-4ubuntu1 "}
